; Function Attrs: mustprogress uwtable
define internal void @"_ZNK7doctest6detail12ContextScopeIZN4Luau7Fixture21matchParseErrorPrefixERKNSt7__cxx1112basic_stringIcSt11char_traitsIcESaIcEEESB_E3$_0E9stringifyEPSo"(ptr noundef nonnull readonly align 8 captures(none) dereferenceable(24) %0, ptr noundef %1) unnamed_addr #6 align 2 personality ptr @__gxx_personality_v0 {
  %3 = alloca %"struct.doctest::detail::MessageBuilder", align 8
  call void @llvm.lifetime.start.p0(i64 56, ptr nonnull %3)
  call void @_ZN7doctest6detail14MessageBuilderC1EPKciNS_10assertType4EnumE(ptr noundef nonnull align 8 dereferenceable(49) %3, ptr noundef nonnull @.str.61, i32 noundef 313, i32 noundef 1)
  %4 = getelementptr inbounds nuw i8, ptr %3, i64 40
  store ptr %1, ptr %4, align 8
  %5 = invoke noundef nonnull align 8 dereferenceable(49) ptr @_ZN7doctest6detail14MessageBuildercmIA28_cEERS1_RKT_(ptr noundef nonnull align 8 dereferenceable(49) %3, ptr noundef nonnull align 1 dereferenceable(28) @.str.102)
          to label %_ZN7doctest6detail14MessageBuildermlIA28_cEERS1_RKT_.exit.i unwind label %10

_ZN7doctest6detail14MessageBuildermlIA28_cEERS1_RKT_.exit.i: ; preds = %2
  %6 = getelementptr inbounds nuw i8, ptr %0, i64 16
  %7 = load ptr, ptr %6, align 8
  %8 = invoke noundef nonnull align 8 dereferenceable(49) ptr @_ZN7doctest6detail14MessageBuildercmINSt7__cxx1112basic_stringIcSt11char_traitsIcESaIcEEEEERS1_RKT_(ptr noundef nonnull align 8 dereferenceable(49) %5, ptr noundef nonnull align 8 dereferenceable(32) %7)
          to label %_ZN7doctest6detail14MessageBuilderlsINSt7__cxx1112basic_stringIcSt11char_traitsIcESaIcEEEEERS1_RKT_.exit.i unwind label %10

_ZN7doctest6detail14MessageBuilderlsINSt7__cxx1112basic_stringIcSt11char_traitsIcESaIcEEEEERS1_RKT_.exit.i: ; preds = %_ZN7doctest6detail14MessageBuildermlIA28_cEERS1_RKT_.exit.i
  %9 = invoke noundef nonnull align 8 dereferenceable(49) ptr @_ZN7doctest6detail14MessageBuildercmIA2_cEERS1_RKT_(ptr noundef nonnull align 8 dereferenceable(49) %8, ptr noundef nonnull align 1 dereferenceable(2) @.str.103)
          to label %"_ZZN4Luau7Fixture21matchParseErrorPrefixERKNSt7__cxx1112basic_stringIcSt11char_traitsIcESaIcEEES8_ENK3$_0clEPSo.exit" unwind label %10

10:                                               ; preds = %_ZN7doctest6detail14MessageBuilderlsINSt7__cxx1112basic_stringIcSt11char_traitsIcESaIcEEEEERS1_RKT_.exit.i, %_ZN7doctest6detail14MessageBuildermlIA28_cEERS1_RKT_.exit.i, %2
  %11 = landingpad { ptr, i32 }
          cleanup
  call void @_ZN7doctest6detail14MessageBuilderD1Ev(ptr noundef nonnull align 8 dereferenceable(49) %3) #27
  resume { ptr, i32 } %11

"_ZZN4Luau7Fixture21matchParseErrorPrefixERKNSt7__cxx1112basic_stringIcSt11char_traitsIcESaIcEEES8_ENK3$_0clEPSo.exit": ; preds = %_ZN7doctest6detail14MessageBuilderlsINSt7__cxx1112basic_stringIcSt11char_traitsIcESaIcEEEEERS1_RKT_.exit.i
  call void @_ZN7doctest6detail14MessageBuilderD1Ev(ptr noundef nonnull align 8 dereferenceable(49) %3) #27
  call void @llvm.lifetime.end.p0(i64 56, ptr nonnull %3)
  ret void
}